target datalayout = "e-m:e-p270:32:32-p271:32:32-p272:64:64-i64:64-i128:128-f80:128-n8:16:32:64-S128"
target triple = "x86_64-pc-linux-gnu"

%struct.AVFilterPad = type { ptr, i32, i32, %union.anon, ptr, ptr, ptr }
%union.anon = type { ptr }
%struct.AVFilterContext = type { ptr, ptr, ptr, ptr, ptr, i32, ptr, ptr, i32, ptr, ptr, i32, i32, ptr, ptr, ptr, ptr, i32, ptr, i32, i32 }
%struct.DisplaceContext = type { ptr, [4 x i32], [4 x i32], i32, i32, i32, i32, [4 x i8], %struct.FFFrameSync, ptr }
%struct.FFFrameSync = type { ptr, ptr, i32, %struct.AVRational, i64, ptr, ptr, i32, i32, i8, i8, ptr, i32, i32, i32, i32 }
%struct.AVRational = type { i32, i32 }
%struct.AVFilterLink = type { ptr, ptr, ptr, ptr, i32, i32, i32, i32, %struct.AVRational, i32, i32, i32, %struct.AVChannelLayout, %struct.AVRational, ptr, i32, %struct.AVFilterFormatsConfig, %struct.AVFilterFormatsConfig }
%struct.AVChannelLayout = type { i32, i32, %union.anon.1, ptr }
%union.anon.1 = type { i64 }
%struct.AVFilterFormatsConfig = type { ptr, ptr, ptr, ptr, ptr }
%struct.FilterLink = type { %struct.AVFilterLink, ptr, i64, i64, i32, i32, i64, i64, i64, i64, %struct.AVRational, ptr }
%struct.FFFrameSyncIn = type { i32, i32, %struct.AVRational, ptr, ptr, i64, i64, i8, i8, i32, i32 }

@.str.6 = private unnamed_addr constant [162 x i8] c"First input link %s parameters (size %dx%d) do not match the corresponding second input link %s parameters (%dx%d) and/or third input link %s parameters (%dx%d)\0A\00", align 1

; Function Attrs: inlinehint nounwind uwtable
define internal ptr @ff_filter_link(ptr noundef %0) #6 {
  %2 = alloca ptr, align 8
  store ptr %0, ptr %2, align 8, !tbaa !24
  %3 = load ptr, ptr %2, align 8, !tbaa !24
  ret ptr %3
}

; Function Attrs: nounwind uwtable
define internal i32 @config_output(ptr noundef %0) #2 {
  %2 = alloca i32, align 4
  %3 = alloca ptr, align 8
  %4 = alloca ptr, align 8
  %5 = alloca ptr, align 8
  %6 = alloca ptr, align 8
  %7 = alloca ptr, align 8
  %8 = alloca ptr, align 8
  %9 = alloca ptr, align 8
  %10 = alloca ptr, align 8
  %11 = alloca ptr, align 8
  %12 = alloca i32, align 4
  %13 = alloca i32, align 4
  store ptr %0, ptr %3, align 8, !tbaa !24
  call void @llvm.lifetime.start.p0(i64 8, ptr %4) #10
  %14 = load ptr, ptr %3, align 8, !tbaa !24
  %15 = call ptr @ff_filter_link(ptr noundef %14)
  store ptr %15, ptr %4, align 8, !tbaa !82
  call void @llvm.lifetime.start.p0(i64 8, ptr %5) #10
  %16 = load ptr, ptr %3, align 8, !tbaa !24
  %17 = getelementptr inbounds nuw %struct.AVFilterLink, ptr %16, i32 0, i32 0
  %18 = load ptr, ptr %17, align 8, !tbaa !84
  store ptr %18, ptr %5, align 8, !tbaa !4
  call void @llvm.lifetime.start.p0(i64 8, ptr %6) #10
  %19 = load ptr, ptr %5, align 8, !tbaa !4
  %20 = getelementptr inbounds nuw %struct.AVFilterContext, ptr %19, i32 0, i32 9
  %21 = load ptr, ptr %20, align 8, !tbaa !9
  store ptr %21, ptr %6, align 8, !tbaa !22
  call void @llvm.lifetime.start.p0(i64 8, ptr %7) #10
  %22 = load ptr, ptr %5, align 8, !tbaa !4
  %23 = getelementptr inbounds nuw %struct.AVFilterContext, ptr %22, i32 0, i32 4
  %24 = load ptr, ptr %23, align 8, !tbaa !85
  %25 = getelementptr inbounds ptr, ptr %24, i64 0
  %26 = load ptr, ptr %25, align 8, !tbaa !24
  store ptr %26, ptr %7, align 8, !tbaa !24
  call void @llvm.lifetime.start.p0(i64 8, ptr %8) #10
  %27 = load ptr, ptr %7, align 8, !tbaa !24
  %28 = call ptr @ff_filter_link(ptr noundef %27)
  store ptr %28, ptr %8, align 8, !tbaa !82
  call void @llvm.lifetime.start.p0(i64 8, ptr %9) #10
  %29 = load ptr, ptr %5, align 8, !tbaa !4
  %30 = getelementptr inbounds nuw %struct.AVFilterContext, ptr %29, i32 0, i32 4
  %31 = load ptr, ptr %30, align 8, !tbaa !85
  %32 = getelementptr inbounds ptr, ptr %31, i64 1
  %33 = load ptr, ptr %32, align 8, !tbaa !24
  store ptr %33, ptr %9, align 8, !tbaa !24
  call void @llvm.lifetime.start.p0(i64 8, ptr %10) #10
  %34 = load ptr, ptr %5, align 8, !tbaa !4
  %35 = getelementptr inbounds nuw %struct.AVFilterContext, ptr %34, i32 0, i32 4
  %36 = load ptr, ptr %35, align 8, !tbaa !85
  %37 = getelementptr inbounds ptr, ptr %36, i64 2
  %38 = load ptr, ptr %37, align 8, !tbaa !24
  store ptr %38, ptr %10, align 8, !tbaa !24
  call void @llvm.lifetime.start.p0(i64 8, ptr %11) #10
  call void @llvm.lifetime.start.p0(i64 4, ptr %12) #10
  %39 = load ptr, ptr %7, align 8, !tbaa !24
  %40 = getelementptr inbounds nuw %struct.AVFilterLink, ptr %39, i32 0, i32 6
  %41 = load i32, ptr %40, align 8, !tbaa !53
  %42 = load ptr, ptr %9, align 8, !tbaa !24
  %43 = getelementptr inbounds nuw %struct.AVFilterLink, ptr %42, i32 0, i32 6
  %44 = load i32, ptr %43, align 8, !tbaa !53
  %45 = icmp ne i32 %41, %44
  br i1 %45, label %70, label %46

46:                                               ; preds = %1
  %47 = load ptr, ptr %7, align 8, !tbaa !24
  %48 = getelementptr inbounds nuw %struct.AVFilterLink, ptr %47, i32 0, i32 7
  %49 = load i32, ptr %48, align 4, !tbaa !52
  %50 = load ptr, ptr %9, align 8, !tbaa !24
  %51 = getelementptr inbounds nuw %struct.AVFilterLink, ptr %50, i32 0, i32 7
  %52 = load i32, ptr %51, align 4, !tbaa !52
  %53 = icmp ne i32 %49, %52
  br i1 %53, label %70, label %54

54:                                               ; preds = %46
  %55 = load ptr, ptr %7, align 8, !tbaa !24
  %56 = getelementptr inbounds nuw %struct.AVFilterLink, ptr %55, i32 0, i32 6
  %57 = load i32, ptr %56, align 8, !tbaa !53
  %58 = load ptr, ptr %10, align 8, !tbaa !24
  %59 = getelementptr inbounds nuw %struct.AVFilterLink, ptr %58, i32 0, i32 6
  %60 = load i32, ptr %59, align 8, !tbaa !53
  %61 = icmp ne i32 %57, %60
  br i1 %61, label %70, label %62

62:                                               ; preds = %54
  %63 = load ptr, ptr %7, align 8, !tbaa !24
  %64 = getelementptr inbounds nuw %struct.AVFilterLink, ptr %63, i32 0, i32 7
  %65 = load i32, ptr %64, align 4, !tbaa !52
  %66 = load ptr, ptr %10, align 8, !tbaa !24
  %67 = getelementptr inbounds nuw %struct.AVFilterLink, ptr %66, i32 0, i32 7
  %68 = load i32, ptr %67, align 4, !tbaa !52
  %69 = icmp ne i32 %65, %68
  br i1 %69, label %70, label %108

70:                                               ; preds = %62, %54, %46, %1
  %71 = load ptr, ptr %5, align 8, !tbaa !4
  %72 = load ptr, ptr %5, align 8, !tbaa !4
  %73 = getelementptr inbounds nuw %struct.AVFilterContext, ptr %72, i32 0, i32 3
  %74 = load ptr, ptr %73, align 8, !tbaa !86
  %75 = getelementptr inbounds %struct.AVFilterPad, ptr %74, i64 0
  %76 = getelementptr inbounds nuw %struct.AVFilterPad, ptr %75, i32 0, i32 0
  %77 = load ptr, ptr %76, align 8, !tbaa !87
  %78 = load ptr, ptr %7, align 8, !tbaa !24
  %79 = getelementptr inbounds nuw %struct.AVFilterLink, ptr %78, i32 0, i32 6
  %80 = load i32, ptr %79, align 8, !tbaa !53
  %81 = load ptr, ptr %7, align 8, !tbaa !24
  %82 = getelementptr inbounds nuw %struct.AVFilterLink, ptr %81, i32 0, i32 7
  %83 = load i32, ptr %82, align 4, !tbaa !52
  %84 = load ptr, ptr %5, align 8, !tbaa !4
  %85 = getelementptr inbounds nuw %struct.AVFilterContext, ptr %84, i32 0, i32 3
  %86 = load ptr, ptr %85, align 8, !tbaa !86
  %87 = getelementptr inbounds %struct.AVFilterPad, ptr %86, i64 1
  %88 = getelementptr inbounds nuw %struct.AVFilterPad, ptr %87, i32 0, i32 0
  %89 = load ptr, ptr %88, align 8, !tbaa !87
  %90 = load ptr, ptr %9, align 8, !tbaa !24
  %91 = getelementptr inbounds nuw %struct.AVFilterLink, ptr %90, i32 0, i32 6
  %92 = load i32, ptr %91, align 8, !tbaa !53
  %93 = load ptr, ptr %9, align 8, !tbaa !24
  %94 = getelementptr inbounds nuw %struct.AVFilterLink, ptr %93, i32 0, i32 7
  %95 = load i32, ptr %94, align 4, !tbaa !52
  %96 = load ptr, ptr %5, align 8, !tbaa !4
  %97 = getelementptr inbounds nuw %struct.AVFilterContext, ptr %96, i32 0, i32 3
  %98 = load ptr, ptr %97, align 8, !tbaa !86
  %99 = getelementptr inbounds %struct.AVFilterPad, ptr %98, i64 2
  %100 = getelementptr inbounds nuw %struct.AVFilterPad, ptr %99, i32 0, i32 0
  %101 = load ptr, ptr %100, align 8, !tbaa !87
  %102 = load ptr, ptr %10, align 8, !tbaa !24
  %103 = getelementptr inbounds nuw %struct.AVFilterLink, ptr %102, i32 0, i32 6
  %104 = load i32, ptr %103, align 8, !tbaa !53
  %105 = load ptr, ptr %10, align 8, !tbaa !24
  %106 = getelementptr inbounds nuw %struct.AVFilterLink, ptr %105, i32 0, i32 7
  %107 = load i32, ptr %106, align 4, !tbaa !52
  call void (ptr, i32, ptr, ...) @av_log(ptr noundef %71, i32 noundef 16, ptr noundef @.str.6, ptr noundef %77, i32 noundef %80, i32 noundef %83, ptr noundef %89, i32 noundef %92, i32 noundef %95, ptr noundef %101, i32 noundef %104, i32 noundef %107)
  store i32 -22, ptr %2, align 4
  store i32 1, ptr %13, align 4
  br label %198

108:                                              ; preds = %62
  %109 = load ptr, ptr %7, align 8, !tbaa !24
  %110 = getelementptr inbounds nuw %struct.AVFilterLink, ptr %109, i32 0, i32 6
  %111 = load i32, ptr %110, align 8, !tbaa !53
  %112 = load ptr, ptr %3, align 8, !tbaa !24
  %113 = getelementptr inbounds nuw %struct.AVFilterLink, ptr %112, i32 0, i32 6
  store i32 %111, ptr %113, align 8, !tbaa !53
  %114 = load ptr, ptr %7, align 8, !tbaa !24
  %115 = getelementptr inbounds nuw %struct.AVFilterLink, ptr %114, i32 0, i32 7
  %116 = load i32, ptr %115, align 4, !tbaa !52
  %117 = load ptr, ptr %3, align 8, !tbaa !24
  %118 = getelementptr inbounds nuw %struct.AVFilterLink, ptr %117, i32 0, i32 7
  store i32 %116, ptr %118, align 4, !tbaa !52
  %119 = load ptr, ptr %3, align 8, !tbaa !24
  %120 = getelementptr inbounds nuw %struct.AVFilterLink, ptr %119, i32 0, i32 8
  %121 = load ptr, ptr %7, align 8, !tbaa !24
  %122 = getelementptr inbounds nuw %struct.AVFilterLink, ptr %121, i32 0, i32 8
  call void @llvm.memcpy.p0.p0.i64(ptr align 8 %120, ptr align 8 %122, i64 8, i1 false), !tbaa.struct !89
  %123 = load ptr, ptr %4, align 8, !tbaa !82
  %124 = getelementptr inbounds nuw %struct.FilterLink, ptr %123, i32 0, i32 10
  %125 = load ptr, ptr %8, align 8, !tbaa !82
  %126 = getelementptr inbounds nuw %struct.FilterLink, ptr %125, i32 0, i32 10
  call void @llvm.memcpy.p0.p0.i64(ptr align 8 %124, ptr align 8 %126, i64 8, i1 false), !tbaa.struct !89
  %127 = load ptr, ptr %6, align 8, !tbaa !22
  %128 = getelementptr inbounds nuw %struct.DisplaceContext, ptr %127, i32 0, i32 8
  %129 = load ptr, ptr %5, align 8, !tbaa !4
  %130 = call i32 @ff_framesync_init(ptr noundef %128, ptr noundef %129, i32 noundef 3)
  store i32 %130, ptr %12, align 4, !tbaa !50
  %131 = load i32, ptr %12, align 4, !tbaa !50
  %132 = icmp slt i32 %131, 0
  br i1 %132, label %133, label %135

133:                                              ; preds = %108
  %134 = load i32, ptr %12, align 4, !tbaa !50
  store i32 %134, ptr %2, align 4
  store i32 1, ptr %13, align 4
  br label %198

135:                                              ; preds = %108
  %136 = load ptr, ptr %6, align 8, !tbaa !22
  %137 = getelementptr inbounds nuw %struct.DisplaceContext, ptr %136, i32 0, i32 8
  %138 = getelementptr inbounds nuw %struct.FFFrameSync, ptr %137, i32 0, i32 11
  %139 = load ptr, ptr %138, align 8, !tbaa !90
  store ptr %139, ptr %11, align 8, !tbaa !91
  %140 = load ptr, ptr %11, align 8, !tbaa !91
  %141 = getelementptr inbounds %struct.FFFrameSyncIn, ptr %140, i64 0
  %142 = getelementptr inbounds nuw %struct.FFFrameSyncIn, ptr %141, i32 0, i32 2
  %143 = load ptr, ptr %7, align 8, !tbaa !24
  %144 = getelementptr inbounds nuw %struct.AVFilterLink, ptr %143, i32 0, i32 13
  call void @llvm.memcpy.p0.p0.i64(ptr align 8 %142, ptr align 8 %144, i64 8, i1 false), !tbaa.struct !89
  %145 = load ptr, ptr %11, align 8, !tbaa !91
  %146 = getelementptr inbounds %struct.FFFrameSyncIn, ptr %145, i64 1
  %147 = getelementptr inbounds nuw %struct.FFFrameSyncIn, ptr %146, i32 0, i32 2
  %148 = load ptr, ptr %9, align 8, !tbaa !24
  %149 = getelementptr inbounds nuw %struct.AVFilterLink, ptr %148, i32 0, i32 13
  call void @llvm.memcpy.p0.p0.i64(ptr align 8 %147, ptr align 8 %149, i64 8, i1 false), !tbaa.struct !89
  %150 = load ptr, ptr %11, align 8, !tbaa !91
  %151 = getelementptr inbounds %struct.FFFrameSyncIn, ptr %150, i64 2
  %152 = getelementptr inbounds nuw %struct.FFFrameSyncIn, ptr %151, i32 0, i32 2
  %153 = load ptr, ptr %10, align 8, !tbaa !24
  %154 = getelementptr inbounds nuw %struct.AVFilterLink, ptr %153, i32 0, i32 13
  call void @llvm.memcpy.p0.p0.i64(ptr align 8 %152, ptr align 8 %154, i64 8, i1 false), !tbaa.struct !89
  %155 = load ptr, ptr %11, align 8, !tbaa !91
  %156 = getelementptr inbounds %struct.FFFrameSyncIn, ptr %155, i64 0
  %157 = getelementptr inbounds nuw %struct.FFFrameSyncIn, ptr %156, i32 0, i32 9
  store i32 2, ptr %157, align 4, !tbaa !92
  %158 = load ptr, ptr %11, align 8, !tbaa !91
  %159 = getelementptr inbounds %struct.FFFrameSyncIn, ptr %158, i64 0
  %160 = getelementptr inbounds nuw %struct.FFFrameSyncIn, ptr %159, i32 0, i32 0
  store i32 0, ptr %160, align 8, !tbaa !94
  %161 = load ptr, ptr %11, align 8, !tbaa !91
  %162 = getelementptr inbounds %struct.FFFrameSyncIn, ptr %161, i64 0
  %163 = getelementptr inbounds nuw %struct.FFFrameSyncIn, ptr %162, i32 0, i32 1
  store i32 0, ptr %163, align 4, !tbaa !95
  %164 = load ptr, ptr %11, align 8, !tbaa !91
  %165 = getelementptr inbounds %struct.FFFrameSyncIn, ptr %164, i64 1
  %166 = getelementptr inbounds nuw %struct.FFFrameSyncIn, ptr %165, i32 0, i32 9
  store i32 1, ptr %166, align 4, !tbaa !92
  %167 = load ptr, ptr %11, align 8, !tbaa !91
  %168 = getelementptr inbounds %struct.FFFrameSyncIn, ptr %167, i64 1
  %169 = getelementptr inbounds nuw %struct.FFFrameSyncIn, ptr %168, i32 0, i32 0
  store i32 1, ptr %169, align 8, !tbaa !94
  %170 = load ptr, ptr %11, align 8, !tbaa !91
  %171 = getelementptr inbounds %struct.FFFrameSyncIn, ptr %170, i64 1
  %172 = getelementptr inbounds nuw %struct.FFFrameSyncIn, ptr %171, i32 0, i32 1
  store i32 2, ptr %172, align 4, !tbaa !95
  %173 = load ptr, ptr %11, align 8, !tbaa !91
  %174 = getelementptr inbounds %struct.FFFrameSyncIn, ptr %173, i64 2
  %175 = getelementptr inbounds nuw %struct.FFFrameSyncIn, ptr %174, i32 0, i32 9
  store i32 1, ptr %175, align 4, !tbaa !92
  %176 = load ptr, ptr %11, align 8, !tbaa !91
  %177 = getelementptr inbounds %struct.FFFrameSyncIn, ptr %176, i64 2
  %178 = getelementptr inbounds nuw %struct.FFFrameSyncIn, ptr %177, i32 0, i32 0
  store i32 1, ptr %178, align 8, !tbaa !94
  %179 = load ptr, ptr %11, align 8, !tbaa !91
  %180 = getelementptr inbounds %struct.FFFrameSyncIn, ptr %179, i64 2
  %181 = getelementptr inbounds nuw %struct.FFFrameSyncIn, ptr %180, i32 0, i32 1
  store i32 2, ptr %181, align 4, !tbaa !95
  %182 = load ptr, ptr %6, align 8, !tbaa !22
  %183 = load ptr, ptr %6, align 8, !tbaa !22
  %184 = getelementptr inbounds nuw %struct.DisplaceContext, ptr %183, i32 0, i32 8
  %185 = getelementptr inbounds nuw %struct.FFFrameSync, ptr %184, i32 0, i32 6
  store ptr %182, ptr %185, align 8, !tbaa !96
  %186 = load ptr, ptr %6, align 8, !tbaa !22
  %187 = getelementptr inbounds nuw %struct.DisplaceContext, ptr %186, i32 0, i32 8
  %188 = getelementptr inbounds nuw %struct.FFFrameSync, ptr %187, i32 0, i32 5
  store ptr @process_frame, ptr %188, align 8, !tbaa !97
  %189 = load ptr, ptr %6, align 8, !tbaa !22
  %190 = getelementptr inbounds nuw %struct.DisplaceContext, ptr %189, i32 0, i32 8
  %191 = call i32 @ff_framesync_configure(ptr noundef %190)
  store i32 %191, ptr %12, align 4, !tbaa !50
  %192 = load ptr, ptr %3, align 8, !tbaa !24
  %193 = getelementptr inbounds nuw %struct.AVFilterLink, ptr %192, i32 0, i32 13
  %194 = load ptr, ptr %6, align 8, !tbaa !22
  %195 = getelementptr inbounds nuw %struct.DisplaceContext, ptr %194, i32 0, i32 8
  %196 = getelementptr inbounds nuw %struct.FFFrameSync, ptr %195, i32 0, i32 3
  call void @llvm.memcpy.p0.p0.i64(ptr align 8 %193, ptr align 4 %196, i64 8, i1 false), !tbaa.struct !89
  %197 = load i32, ptr %12, align 4, !tbaa !50
  store i32 %197, ptr %2, align 4
  store i32 1, ptr %13, align 4
  br label %198

198:                                              ; preds = %135, %133, %70
  call void @llvm.lifetime.end.p0(i64 4, ptr %12) #10
  call void @llvm.lifetime.end.p0(i64 8, ptr %11) #10
  call void @llvm.lifetime.end.p0(i64 8, ptr %10) #10
  call void @llvm.lifetime.end.p0(i64 8, ptr %9) #10
  call void @llvm.lifetime.end.p0(i64 8, ptr %8) #10
  call void @llvm.lifetime.end.p0(i64 8, ptr %7) #10
  call void @llvm.lifetime.end.p0(i64 8, ptr %6) #10
  call void @llvm.lifetime.end.p0(i64 8, ptr %5) #10
  call void @llvm.lifetime.end.p0(i64 8, ptr %4) #10
  %199 = load i32, ptr %2, align 4
  ret i32 %199
}