; Function Attrs: nounwind uwtable
define internal i32 @config_output(ptr noundef captures(none) %0) #2 {
  %2 = load ptr, ptr %0, align 8, !tbaa !72
  %3 = getelementptr inbounds nuw i8, ptr %2, i64 72
  %4 = load ptr, ptr %3, align 8, !tbaa !4
  %5 = getelementptr inbounds nuw i8, ptr %2, i64 32
  %6 = load ptr, ptr %5, align 8, !tbaa !73
  %7 = load ptr, ptr %6, align 8, !tbaa !74
  %8 = getelementptr inbounds nuw i8, ptr %6, i64 8
  %9 = load ptr, ptr %8, align 8, !tbaa !74
  %10 = getelementptr inbounds nuw i8, ptr %6, i64 16
  %11 = load ptr, ptr %10, align 8, !tbaa !74
  %12 = getelementptr inbounds nuw i8, ptr %7, i64 40
  %13 = load i32, ptr %12, align 8, !tbaa !46
  %14 = getelementptr inbounds nuw i8, ptr %9, i64 40
  %15 = load i32, ptr %14, align 8, !tbaa !46
  %.not = icmp eq i32 %13, %15
  %16 = getelementptr inbounds nuw i8, ptr %7, i64 44
  %17 = load i32, ptr %16, align 4, !tbaa !43
  %18 = getelementptr inbounds nuw i8, ptr %9, i64 44
  %19 = load i32, ptr %18, align 4, !tbaa !43
  %.not63 = icmp eq i32 %17, %19
  %or.cond = select i1 %.not, i1 %.not63, i1 false
  br i1 %or.cond, label %20, label %._crit_edge

20:                                               ; preds = %1
  %21 = getelementptr inbounds nuw i8, ptr %11, i64 40
  %22 = load i32, ptr %21, align 8, !tbaa !46
  %.not64 = icmp eq i32 %13, %22
  br i1 %.not64, label %23, label %._crit_edge

23:                                               ; preds = %20
  %24 = getelementptr inbounds nuw i8, ptr %11, i64 44
  %25 = load i32, ptr %24, align 4, !tbaa !43
  %.not65 = icmp eq i32 %17, %25
  br i1 %.not65, label %38, label %._crit_edge

._crit_edge:                                      ; preds = %1, %23, %20
  %26 = phi i32 [ %17, %23 ], [ %17, %20 ], [ %19, %1 ]
  %27 = getelementptr inbounds nuw i8, ptr %2, i64 24
  %28 = load ptr, ptr %27, align 8, !tbaa !76
  %29 = load ptr, ptr %28, align 8, !tbaa !77
  %30 = getelementptr inbounds nuw i8, ptr %28, i64 48
  %31 = load ptr, ptr %30, align 8, !tbaa !77
  %32 = getelementptr inbounds nuw i8, ptr %28, i64 96
  %33 = load ptr, ptr %32, align 8, !tbaa !77
  %34 = getelementptr inbounds nuw i8, ptr %11, i64 40
  %35 = load i32, ptr %34, align 8, !tbaa !46
  %36 = getelementptr inbounds nuw i8, ptr %11, i64 44
  %37 = load i32, ptr %36, align 4, !tbaa !43
  tail call void (ptr, i32, ptr, ...) @av_log(ptr noundef nonnull %2, i32 noundef 16, ptr noundef nonnull @.str.6, ptr noundef %29, i32 noundef %13, i32 noundef %17, ptr noundef %31, i32 noundef %15, i32 noundef %26, ptr noundef %33, i32 noundef %35, i32 noundef %37) #8
  br label %76

38:                                               ; preds = %23
  %39 = getelementptr inbounds nuw i8, ptr %0, i64 40
  store i32 %13, ptr %39, align 8, !tbaa !46
  %40 = getelementptr inbounds nuw i8, ptr %0, i64 44
  store i32 %17, ptr %40, align 4, !tbaa !43
  %41 = getelementptr inbounds nuw i8, ptr %0, i64 48
  %42 = getelementptr inbounds nuw i8, ptr %7, i64 48
  %43 = load i64, ptr %42, align 8
  store i64 %43, ptr %41, align 8
  %44 = getelementptr inbounds nuw i8, ptr %0, i64 264
  %45 = getelementptr inbounds nuw i8, ptr %7, i64 264
  %46 = load i64, ptr %45, align 8
  store i64 %46, ptr %44, align 8
  %47 = getelementptr inbounds nuw i8, ptr %4, i64 64
  %48 = tail call i32 @ff_framesync_init(ptr noundef nonnull %47, ptr noundef nonnull %2, i32 noundef 3) #8
  %49 = icmp slt i32 %48, 0
  br i1 %49, label %76, label %50

50:                                               ; preds = %38
  %51 = getelementptr inbounds nuw i8, ptr %4, i64 136
  %52 = load ptr, ptr %51, align 8, !tbaa !79
  %53 = getelementptr inbounds nuw i8, ptr %52, i64 8
  %54 = getelementptr inbounds nuw i8, ptr %7, i64 96
  %55 = load i64, ptr %54, align 8
  store i64 %55, ptr %53, align 8
  %56 = getelementptr inbounds nuw i8, ptr %52, i64 64
  %57 = getelementptr inbounds nuw i8, ptr %52, i64 72
  %58 = getelementptr inbounds nuw i8, ptr %9, i64 96
  %59 = load i64, ptr %58, align 8
  store i64 %59, ptr %57, align 8
  %60 = getelementptr inbounds nuw i8, ptr %52, i64 128
  %61 = getelementptr inbounds nuw i8, ptr %52, i64 136
  %62 = getelementptr inbounds nuw i8, ptr %11, i64 96
  %63 = load i64, ptr %62, align 8
  store i64 %63, ptr %61, align 8
  %64 = getelementptr inbounds nuw i8, ptr %52, i64 52
  store i32 2, ptr %64, align 4, !tbaa !80
  store i32 0, ptr %52, align 8, !tbaa !82
  %65 = getelementptr inbounds nuw i8, ptr %52, i64 4
  store i32 0, ptr %65, align 4, !tbaa !83
  %66 = getelementptr inbounds nuw i8, ptr %52, i64 116
  store i32 1, ptr %66, align 4, !tbaa !80
  store i32 1, ptr %56, align 8, !tbaa !82
  %67 = getelementptr inbounds nuw i8, ptr %52, i64 68
  store i32 2, ptr %67, align 4, !tbaa !83
  %68 = getelementptr inbounds nuw i8, ptr %52, i64 180
  store i32 1, ptr %68, align 4, !tbaa !80
  store i32 1, ptr %60, align 8, !tbaa !82
  %69 = getelementptr inbounds nuw i8, ptr %52, i64 132
  store i32 2, ptr %69, align 4, !tbaa !83
  %70 = getelementptr inbounds nuw i8, ptr %4, i64 112
  store ptr %4, ptr %70, align 8, !tbaa !84
  %71 = getelementptr inbounds nuw i8, ptr %4, i64 104
  store ptr @process_frame, ptr %71, align 8, !tbaa !85
  %72 = tail call i32 @ff_framesync_configure(ptr noundef nonnull %47) #8
  %73 = getelementptr inbounds nuw i8, ptr %0, i64 96
  %74 = getelementptr inbounds nuw i8, ptr %4, i64 84
  %75 = load i64, ptr %74, align 4
  store i64 %75, ptr %73, align 8
  br label %76

76:                                               ; preds = %38, %50, %._crit_edge
  %.0 = phi i32 [ -22, %._crit_edge ], [ %72, %50 ], [ %48, %38 ]
  ret i32 %.0
}